(dp0
Vengine
p1
Vpdflatex
p2
sVpackages
p3
c__builtin__
set
p4
((lp5
Vhelvet
p6
aVcourier
p7
aVurl
p8
aVtimes
p9
aVaaai18
p10
aVgraphicx
p11
atp12
Rp13
sVfiles_with_guttermarks
p14
g4
((lp15
S'MidtermWriteup.tex'
p16
atp17
Rp18
sVsynctex
p19
I01
s.